; Function Attrs: nounwind uwtable
define range(i32 0, 2) i32 @dt_gui_search_start(ptr noundef readnone captures(none) %0, ptr noundef %1, ptr noundef %2) local_unnamed_addr #0 {
  %4 = tail call i32 @gtk_search_entry_handle_event(ptr noundef %2, ptr noundef %1) #18
  %.not = icmp eq i32 %4, 0
  br i1 %.not, label %8, label %5

5:                                                ; preds = %3
  %6 = tail call i64 @gtk_entry_get_type() #19
  %7 = tail call ptr @g_type_check_instance_cast(ptr noundef %2, i64 noundef %6) #18
  tail call void @gtk_entry_grab_focus_without_selecting(ptr noundef %7) #18
  br label %8

8:                                                ; preds = %3, %5
  %.0 = phi i32 [ 1, %5 ], [ 0, %3 ]
  ret i32 %.0
}